target datalayout = "e-m:e-p270:32:32-p271:32:32-p272:64:64-i64:64-i128:128-f80:128-n8:16:32:64-S128"
target triple = "x86_64-pc-linux-gnu"

%struct.StringInfoData = type { ptr, i32, i32, i32 }

; Function Attrs: inlinehint nounwind uwtable
define internal void @pq_writeint8(ptr noalias noundef %0, i8 noundef zeroext %1) #1 {
  %3 = alloca ptr, align 8
  %4 = alloca i8, align 1
  %5 = alloca i8, align 1
  store ptr %0, ptr %3, align 8
  store i8 %1, ptr %4, align 1
  call void @llvm.lifetime.start.p0(i64 1, ptr %5) #9
  %6 = load i8, ptr %4, align 1
  store i8 %6, ptr %5, align 1
  %7 = load ptr, ptr %3, align 8
  %8 = getelementptr inbounds nuw %struct.StringInfoData, ptr %7, i32 0, i32 0
  %9 = load ptr, ptr %8, align 8
  %10 = load ptr, ptr %3, align 8
  %11 = getelementptr inbounds nuw %struct.StringInfoData, ptr %10, i32 0, i32 1
  %12 = load i32, ptr %11, align 8
  %13 = sext i32 %12 to i64
  %14 = getelementptr inbounds i8, ptr %9, i64 %13
  call void @llvm.memcpy.p0.p0.i64(ptr align 1 %14, ptr align 1 %5, i64 1, i1 false)
  %15 = load ptr, ptr %3, align 8
  %16 = getelementptr inbounds nuw %struct.StringInfoData, ptr %15, i32 0, i32 1
  %17 = load i32, ptr %16, align 8
  %18 = sext i32 %17 to i64
  %19 = add i64 %18, 1
  %20 = trunc i64 %19 to i32
  store i32 %20, ptr %16, align 8
  call void @llvm.lifetime.end.p0(i64 1, ptr %5) #9
  ret void
}

; Function Attrs: inlinehint nounwind uwtable
define internal void @pq_writeint32(ptr noalias noundef %0, i32 noundef %1) #1 {
  %3 = alloca ptr, align 8
  %4 = alloca i32, align 4
  %5 = alloca i32, align 4
  store ptr %0, ptr %3, align 8
  store i32 %1, ptr %4, align 4
  call void @llvm.lifetime.start.p0(i64 4, ptr %5) #9
  %6 = load i32, ptr %4, align 4
  %7 = call i32 @llvm.bswap.i32(i32 %6)
  store i32 %7, ptr %5, align 4
  %8 = load ptr, ptr %3, align 8
  %9 = getelementptr inbounds nuw %struct.StringInfoData, ptr %8, i32 0, i32 0
  %10 = load ptr, ptr %9, align 8
  %11 = load ptr, ptr %3, align 8
  %12 = getelementptr inbounds nuw %struct.StringInfoData, ptr %11, i32 0, i32 1
  %13 = load i32, ptr %12, align 8
  %14 = sext i32 %13 to i64
  %15 = getelementptr inbounds i8, ptr %10, i64 %14
  call void @llvm.memcpy.p0.p0.i64(ptr align 1 %15, ptr align 4 %5, i64 4, i1 false)
  %16 = load ptr, ptr %3, align 8
  %17 = getelementptr inbounds nuw %struct.StringInfoData, ptr %16, i32 0, i32 1
  %18 = load i32, ptr %17, align 8
  %19 = sext i32 %18 to i64
  %20 = add i64 %19, 4
  %21 = trunc i64 %20 to i32
  store i32 %21, ptr %17, align 8
  call void @llvm.lifetime.end.p0(i64 4, ptr %5) #9
  ret void
}

; Function Attrs: inlinehint nounwind uwtable
define internal void @pq_sendint8(ptr noundef %0, i8 noundef zeroext %1) #1 {
  %3 = alloca ptr, align 8
  %4 = alloca i8, align 1
  store ptr %0, ptr %3, align 8
  store i8 %1, ptr %4, align 1
  %5 = load ptr, ptr %3, align 8
  call void @enlargeStringInfo(ptr noundef %5, i32 noundef 1)
  %6 = load ptr, ptr %3, align 8
  %7 = load i8, ptr %4, align 1
  call void @pq_writeint8(ptr noundef %6, i8 noundef zeroext %7)
  ret void
}

; Function Attrs: inlinehint nounwind uwtable
define internal void @pq_sendint32(ptr noundef %0, i32 noundef %1) #1 {
  %3 = alloca ptr, align 8
  %4 = alloca i32, align 4
  store ptr %0, ptr %3, align 8
  store i32 %1, ptr %4, align 4
  %5 = load ptr, ptr %3, align 8
  call void @enlargeStringInfo(ptr noundef %5, i32 noundef 4)
  %6 = load ptr, ptr %3, align 8
  %7 = load i32, ptr %4, align 4
  call void @pq_writeint32(ptr noundef %6, i32 noundef %7)
  ret void
}

; Function Attrs: inlinehint nounwind uwtable
define internal void @pq_sendbyte(ptr noundef %0, i8 noundef zeroext %1) #1 {
  %3 = alloca ptr, align 8
  %4 = alloca i8, align 1
  store ptr %0, ptr %3, align 8
  store i8 %1, ptr %4, align 1
  %5 = load ptr, ptr %3, align 8
  %6 = load i8, ptr %4, align 1
  call void @pq_sendint8(ptr noundef %5, i8 noundef zeroext %6)
  ret void
}

; Function Attrs: nounwind uwtable
define dso_local void @logicalrep_write_truncate(ptr noundef %0, i32 noundef %1, i32 noundef %2, ptr noundef %3, i1 noundef zeroext %4, i1 noundef zeroext %5) #0 {
  %7 = alloca ptr, align 8
  %8 = alloca i32, align 4
  %9 = alloca i32, align 4
  %10 = alloca ptr, align 8
  %11 = alloca i8, align 1
  %12 = alloca i8, align 1
  %13 = alloca i32, align 4
  %14 = alloca i8, align 1
  store ptr %0, ptr %7, align 8
  store i32 %1, ptr %8, align 4
  store i32 %2, ptr %9, align 4
  store ptr %3, ptr %10, align 8
  %15 = zext i1 %4 to i8
  store i8 %15, ptr %11, align 1
  %16 = zext i1 %5 to i8
  store i8 %16, ptr %12, align 1
  call void @llvm.lifetime.start.p0(i64 4, ptr %13) #9
  call void @llvm.lifetime.start.p0(i64 1, ptr %14) #9
  store i8 0, ptr %14, align 1
  %17 = load ptr, ptr %7, align 8
  call void @pq_sendbyte(ptr noundef %17, i8 noundef zeroext 84)
  %18 = load i32, ptr %8, align 4
  %19 = icmp ne i32 %18, 0
  br i1 %19, label %20, label %23

20:                                               ; preds = %6
  %21 = load ptr, ptr %7, align 8
  %22 = load i32, ptr %8, align 4
  call void @pq_sendint32(ptr noundef %21, i32 noundef %22)
  br label %23

23:                                               ; preds = %20, %6
  %24 = load ptr, ptr %7, align 8
  %25 = load i32, ptr %9, align 4
  call void @pq_sendint32(ptr noundef %24, i32 noundef %25)
  %26 = load i8, ptr %11, align 1, !range !4, !noundef !5
  %27 = trunc i8 %26 to i1
  br i1 %27, label %28, label %33

28:                                               ; preds = %23
  %29 = load i8, ptr %14, align 1
  %30 = zext i8 %29 to i32
  %31 = or i32 %30, 1
  %32 = trunc i32 %31 to i8
  store i8 %32, ptr %14, align 1
  br label %33

33:                                               ; preds = %28, %23
  %34 = load i8, ptr %12, align 1, !range !4, !noundef !5
  %35 = trunc i8 %34 to i1
  br i1 %35, label %36, label %41

36:                                               ; preds = %33
  %37 = load i8, ptr %14, align 1
  %38 = zext i8 %37 to i32
  %39 = or i32 %38, 2
  %40 = trunc i32 %39 to i8
  store i8 %40, ptr %14, align 1
  br label %41

41:                                               ; preds = %36, %33
  %42 = load ptr, ptr %7, align 8
  %43 = load i8, ptr %14, align 1
  call void @pq_sendint8(ptr noundef %42, i8 noundef zeroext %43)
  store i32 0, ptr %13, align 4
  br label %44

44:                                               ; preds = %55, %41
  %45 = load i32, ptr %13, align 4
  %46 = load i32, ptr %9, align 4
  %47 = icmp slt i32 %45, %46
  br i1 %47, label %48, label %58

48:                                               ; preds = %44
  %49 = load ptr, ptr %7, align 8
  %50 = load ptr, ptr %10, align 8
  %51 = load i32, ptr %13, align 4
  %52 = sext i32 %51 to i64
  %53 = getelementptr inbounds i32, ptr %50, i64 %52
  %54 = load i32, ptr %53, align 4
  call void @pq_sendint32(ptr noundef %49, i32 noundef %54)
  br label %55

55:                                               ; preds = %48
  %56 = load i32, ptr %13, align 4
  %57 = add i32 %56, 1
  store i32 %57, ptr %13, align 4
  br label %44, !llvm.loop !10

58:                                               ; preds = %44
  call void @llvm.lifetime.end.p0(i64 1, ptr %14) #9
  call void @llvm.lifetime.end.p0(i64 4, ptr %13) #9
  ret void
}