; Function Attrs: nounwind uwtable
define dso_local void @logicalrep_write_truncate(ptr noundef %0, i32 noundef %1, i32 noundef %2, ptr noundef readonly captures(none) %3, i1 noundef zeroext %4, i1 noundef zeroext %5) local_unnamed_addr #0 {
  tail call void @enlargeStringInfo(ptr noundef %0, i32 noundef 1) #8
  tail call void @llvm.experimental.noalias.scope.decl(metadata !166)
  %7 = load ptr, ptr %0, align 8, !alias.scope !166
  %8 = getelementptr inbounds nuw i8, ptr %0, i64 8
  %9 = load i32, ptr %8, align 8, !alias.scope !166
  %10 = sext i32 %9 to i64
  %11 = getelementptr inbounds i8, ptr %7, i64 %10
  store i8 84, ptr %11, align 1, !noalias !166
  %12 = add i32 %9, 1
  store i32 %12, ptr %8, align 8, !alias.scope !166
  %.not = icmp eq i32 %1, 0
  br i1 %.not, label %20, label %13

13:                                               ; preds = %6
  tail call void @enlargeStringInfo(ptr noundef nonnull %0, i32 noundef 4) #8
  tail call void @llvm.experimental.noalias.scope.decl(metadata !169)
  %14 = tail call i32 @llvm.bswap.i32(i32 %1)
  %15 = load ptr, ptr %0, align 8, !alias.scope !169
  %16 = load i32, ptr %8, align 8, !alias.scope !169
  %17 = sext i32 %16 to i64
  %18 = getelementptr inbounds i8, ptr %15, i64 %17
  store i32 %14, ptr %18, align 1, !noalias !169
  %19 = add i32 %16, 4
  store i32 %19, ptr %8, align 8, !alias.scope !169
  br label %20

20:                                               ; preds = %13, %6
  tail call void @enlargeStringInfo(ptr noundef nonnull %0, i32 noundef 4) #8
  tail call void @llvm.experimental.noalias.scope.decl(metadata !172)
  %21 = tail call i32 @llvm.bswap.i32(i32 %2)
  %22 = load ptr, ptr %0, align 8, !alias.scope !172
  %23 = load i32, ptr %8, align 8, !alias.scope !172
  %24 = sext i32 %23 to i64
  %25 = getelementptr inbounds i8, ptr %22, i64 %24
  store i32 %21, ptr %25, align 1, !noalias !172
  %26 = add i32 %23, 4
  store i32 %26, ptr %8, align 8, !alias.scope !172
  %spec.select = zext i1 %4 to i8
  %27 = or disjoint i8 %spec.select, 2
  %.1 = select i1 %5, i8 %27, i8 %spec.select
  tail call void @enlargeStringInfo(ptr noundef nonnull %0, i32 noundef 1) #8
  tail call void @llvm.experimental.noalias.scope.decl(metadata !175)
  %28 = load ptr, ptr %0, align 8, !alias.scope !175
  %29 = load i32, ptr %8, align 8, !alias.scope !175
  %30 = sext i32 %29 to i64
  %31 = getelementptr inbounds i8, ptr %28, i64 %30
  store i8 %.1, ptr %31, align 1, !noalias !175
  %32 = add i32 %29, 1
  store i32 %32, ptr %8, align 8, !alias.scope !175
  %33 = icmp sgt i32 %2, 0
  br i1 %33, label %.lr.ph.preheader, label %._crit_edge

.lr.ph.preheader:                                 ; preds = %20
  %wide.trip.count = zext nneg i32 %2 to i64
  br label %.lr.ph

.lr.ph:                                           ; preds = %.lr.ph.preheader, %.lr.ph
  %indvars.iv = phi i64 [ 0, %.lr.ph.preheader ], [ %indvars.iv.next, %.lr.ph ]
  %34 = getelementptr inbounds nuw i32, ptr %3, i64 %indvars.iv
  %35 = load i32, ptr %34, align 4
  tail call void @enlargeStringInfo(ptr noundef nonnull %0, i32 noundef 4) #8
  tail call void @llvm.experimental.noalias.scope.decl(metadata !178)
  %36 = tail call i32 @llvm.bswap.i32(i32 %35)
  %37 = load ptr, ptr %0, align 8, !alias.scope !178
  %38 = load i32, ptr %8, align 8, !alias.scope !178
  %39 = sext i32 %38 to i64
  %40 = getelementptr inbounds i8, ptr %37, i64 %39
  store i32 %36, ptr %40, align 1, !noalias !178
  %41 = add i32 %38, 4
  store i32 %41, ptr %8, align 8, !alias.scope !178
  %indvars.iv.next = add nuw nsw i64 %indvars.iv, 1
  %exitcond.not = icmp eq i64 %indvars.iv.next, %wide.trip.count
  br i1 %exitcond.not, label %._crit_edge, label %.lr.ph, !llvm.loop !181

._crit_edge:                                      ; preds = %.lr.ph, %20
  ret void
}